target datalayout = "e-m:e-p270:32:32-p271:32:32-p272:64:64-i64:64-i128:128-f80:128-n8:16:32:64-S128"
target triple = "x86_64-pc-linux-gnu"

; Function Attrs: mustprogress nounwind uwtable
define internal noundef i32 @_ZL18Integer_rotateLeftji(i32 noundef %0, i32 noundef %1) #1 {
  %3 = alloca i32, align 4
  %4 = alloca i32, align 4
  store i32 %0, ptr %3, align 4
  store i32 %1, ptr %4, align 4
  %5 = load i32, ptr %3, align 4
  %6 = load i32, ptr %4, align 4
  %7 = shl i32 %5, %6
  %8 = load i32, ptr %3, align 4
  %9 = load i32, ptr %4, align 4
  %10 = sub nsw i32 32, %9
  %11 = lshr i32 %8, %10
  %12 = or i32 %7, %11
  ret i32 %12
}

; Function Attrs: mustprogress nounwind uwtable
define internal void @_ZL18halfsiphash_roundsPji(ptr noundef %0, i32 noundef %1) #1 {
  %3 = alloca ptr, align 8
  %4 = alloca i32, align 4
  store ptr %0, ptr %3, align 8
  store i32 %1, ptr %4, align 4
  br label %5

5:                                                ; preds = %9, %2
  %6 = load i32, ptr %4, align 4
  %7 = add nsw i32 %6, -1
  store i32 %7, ptr %4, align 4
  %8 = icmp sgt i32 %6, 0
  br i1 %8, label %9, label %102

9:                                                ; preds = %5
  %10 = load ptr, ptr %3, align 8
  %11 = getelementptr inbounds i32, ptr %10, i64 1
  %12 = load i32, ptr %11, align 4
  %13 = load ptr, ptr %3, align 8
  %14 = getelementptr inbounds i32, ptr %13, i64 0
  %15 = load i32, ptr %14, align 4
  %16 = add i32 %15, %12
  store i32 %16, ptr %14, align 4
  %17 = load ptr, ptr %3, align 8
  %18 = getelementptr inbounds i32, ptr %17, i64 1
  %19 = load i32, ptr %18, align 4
  %20 = call noundef i32 @_ZL18Integer_rotateLeftji(i32 noundef %19, i32 noundef 5)
  %21 = load ptr, ptr %3, align 8
  %22 = getelementptr inbounds i32, ptr %21, i64 1
  store i32 %20, ptr %22, align 4
  %23 = load ptr, ptr %3, align 8
  %24 = getelementptr inbounds i32, ptr %23, i64 0
  %25 = load i32, ptr %24, align 4
  %26 = load ptr, ptr %3, align 8
  %27 = getelementptr inbounds i32, ptr %26, i64 1
  %28 = load i32, ptr %27, align 4
  %29 = xor i32 %28, %25
  store i32 %29, ptr %27, align 4
  %30 = load ptr, ptr %3, align 8
  %31 = getelementptr inbounds i32, ptr %30, i64 0
  %32 = load i32, ptr %31, align 4
  %33 = call noundef i32 @_ZL18Integer_rotateLeftji(i32 noundef %32, i32 noundef 16)
  %34 = load ptr, ptr %3, align 8
  %35 = getelementptr inbounds i32, ptr %34, i64 0
  store i32 %33, ptr %35, align 4
  %36 = load ptr, ptr %3, align 8
  %37 = getelementptr inbounds i32, ptr %36, i64 3
  %38 = load i32, ptr %37, align 4
  %39 = load ptr, ptr %3, align 8
  %40 = getelementptr inbounds i32, ptr %39, i64 2
  %41 = load i32, ptr %40, align 4
  %42 = add i32 %41, %38
  store i32 %42, ptr %40, align 4
  %43 = load ptr, ptr %3, align 8
  %44 = getelementptr inbounds i32, ptr %43, i64 3
  %45 = load i32, ptr %44, align 4
  %46 = call noundef i32 @_ZL18Integer_rotateLeftji(i32 noundef %45, i32 noundef 8)
  %47 = load ptr, ptr %3, align 8
  %48 = getelementptr inbounds i32, ptr %47, i64 3
  store i32 %46, ptr %48, align 4
  %49 = load ptr, ptr %3, align 8
  %50 = getelementptr inbounds i32, ptr %49, i64 2
  %51 = load i32, ptr %50, align 4
  %52 = load ptr, ptr %3, align 8
  %53 = getelementptr inbounds i32, ptr %52, i64 3
  %54 = load i32, ptr %53, align 4
  %55 = xor i32 %54, %51
  store i32 %55, ptr %53, align 4
  %56 = load ptr, ptr %3, align 8
  %57 = getelementptr inbounds i32, ptr %56, i64 3
  %58 = load i32, ptr %57, align 4
  %59 = load ptr, ptr %3, align 8
  %60 = getelementptr inbounds i32, ptr %59, i64 0
  %61 = load i32, ptr %60, align 4
  %62 = add i32 %61, %58
  store i32 %62, ptr %60, align 4
  %63 = load ptr, ptr %3, align 8
  %64 = getelementptr inbounds i32, ptr %63, i64 3
  %65 = load i32, ptr %64, align 4
  %66 = call noundef i32 @_ZL18Integer_rotateLeftji(i32 noundef %65, i32 noundef 7)
  %67 = load ptr, ptr %3, align 8
  %68 = getelementptr inbounds i32, ptr %67, i64 3
  store i32 %66, ptr %68, align 4
  %69 = load ptr, ptr %3, align 8
  %70 = getelementptr inbounds i32, ptr %69, i64 0
  %71 = load i32, ptr %70, align 4
  %72 = load ptr, ptr %3, align 8
  %73 = getelementptr inbounds i32, ptr %72, i64 3
  %74 = load i32, ptr %73, align 4
  %75 = xor i32 %74, %71
  store i32 %75, ptr %73, align 4
  %76 = load ptr, ptr %3, align 8
  %77 = getelementptr inbounds i32, ptr %76, i64 1
  %78 = load i32, ptr %77, align 4
  %79 = load ptr, ptr %3, align 8
  %80 = getelementptr inbounds i32, ptr %79, i64 2
  %81 = load i32, ptr %80, align 4
  %82 = add i32 %81, %78
  store i32 %82, ptr %80, align 4
  %83 = load ptr, ptr %3, align 8
  %84 = getelementptr inbounds i32, ptr %83, i64 1
  %85 = load i32, ptr %84, align 4
  %86 = call noundef i32 @_ZL18Integer_rotateLeftji(i32 noundef %85, i32 noundef 13)
  %87 = load ptr, ptr %3, align 8
  %88 = getelementptr inbounds i32, ptr %87, i64 1
  store i32 %86, ptr %88, align 4
  %89 = load ptr, ptr %3, align 8
  %90 = getelementptr inbounds i32, ptr %89, i64 2
  %91 = load i32, ptr %90, align 4
  %92 = load ptr, ptr %3, align 8
  %93 = getelementptr inbounds i32, ptr %92, i64 1
  %94 = load i32, ptr %93, align 4
  %95 = xor i32 %94, %91
  store i32 %95, ptr %93, align 4
  %96 = load ptr, ptr %3, align 8
  %97 = getelementptr inbounds i32, ptr %96, i64 2
  %98 = load i32, ptr %97, align 4
  %99 = call noundef i32 @_ZL18Integer_rotateLeftji(i32 noundef %98, i32 noundef 16)
  %100 = load ptr, ptr %3, align 8
  %101 = getelementptr inbounds i32, ptr %100, i64 2
  store i32 %99, ptr %101, align 4
  br label %5, !llvm.loop !14

102:                                              ; preds = %5
  ret void
}

; Function Attrs: mustprogress nounwind uwtable
define internal noundef i32 @_ZL20halfsiphash_finish32Pji(ptr noundef %0, i32 noundef %1) #1 {
  %3 = alloca ptr, align 8
  %4 = alloca i32, align 4
  store ptr %0, ptr %3, align 8
  store i32 %1, ptr %4, align 4
  %5 = load ptr, ptr %3, align 8
  %6 = getelementptr inbounds i32, ptr %5, i64 2
  %7 = load i32, ptr %6, align 4
  %8 = xor i32 %7, 255
  store i32 %8, ptr %6, align 4
  %9 = load ptr, ptr %3, align 8
  %10 = load i32, ptr %4, align 4
  call void @_ZL18halfsiphash_roundsPji(ptr noundef %9, i32 noundef %10)
  %11 = load ptr, ptr %3, align 8
  %12 = getelementptr inbounds i32, ptr %11, i64 1
  %13 = load i32, ptr %12, align 4
  %14 = load ptr, ptr %3, align 8
  %15 = getelementptr inbounds i32, ptr %14, i64 3
  %16 = load i32, ptr %15, align 4
  %17 = xor i32 %13, %16
  ret i32 %17
}

; Function Attrs: mustprogress nounwind uwtable
define internal void @_ZL19halfsiphash_adddataPjji(ptr noundef %0, i32 noundef %1, i32 noundef %2) #1 {
  %4 = alloca ptr, align 8
  %5 = alloca i32, align 4
  %6 = alloca i32, align 4
  store ptr %0, ptr %4, align 8
  store i32 %1, ptr %5, align 4
  store i32 %2, ptr %6, align 4
  %7 = load i32, ptr %5, align 4
  %8 = load ptr, ptr %4, align 8
  %9 = getelementptr inbounds i32, ptr %8, i64 3
  %10 = load i32, ptr %9, align 4
  %11 = xor i32 %10, %7
  store i32 %11, ptr %9, align 4
  %12 = load ptr, ptr %4, align 8
  %13 = load i32, ptr %6, align 4
  call void @_ZL18halfsiphash_roundsPji(ptr noundef %12, i32 noundef %13)
  %14 = load i32, ptr %5, align 4
  %15 = load ptr, ptr %4, align 8
  %16 = getelementptr inbounds i32, ptr %15, i64 0
  %17 = load i32, ptr %16, align 4
  %18 = xor i32 %17, %14
  store i32 %18, ptr %16, align 4
  ret void
}

; Function Attrs: mustprogress nounwind uwtable
define internal void @_ZL18halfsiphash_init32Pjm(ptr noundef %0, i64 noundef %1) #1 {
  %3 = alloca ptr, align 8
  %4 = alloca i64, align 8
  store ptr %0, ptr %3, align 8
  store i64 %1, ptr %4, align 8
  %5 = load i64, ptr %4, align 8
  %6 = and i64 %5, 4294967295
  %7 = trunc i64 %6 to i32
  %8 = load ptr, ptr %3, align 8
  %9 = getelementptr inbounds i32, ptr %8, i64 0
  store i32 %7, ptr %9, align 4
  %10 = load i64, ptr %4, align 8
  %11 = lshr i64 %10, 32
  %12 = trunc i64 %11 to i32
  %13 = load ptr, ptr %3, align 8
  %14 = getelementptr inbounds i32, ptr %13, i64 1
  store i32 %12, ptr %14, align 4
  %15 = load ptr, ptr %3, align 8
  %16 = getelementptr inbounds i32, ptr %15, i64 0
  %17 = load i32, ptr %16, align 4
  %18 = xor i32 1819895653, %17
  %19 = load ptr, ptr %3, align 8
  %20 = getelementptr inbounds i32, ptr %19, i64 2
  store i32 %18, ptr %20, align 4
  %21 = load ptr, ptr %3, align 8
  %22 = getelementptr inbounds i32, ptr %21, i64 1
  %23 = load i32, ptr %22, align 4
  %24 = xor i32 1952801890, %23
  %25 = load ptr, ptr %3, align 8
  %26 = getelementptr inbounds i32, ptr %25, i64 3
  store i32 %24, ptr %26, align 4
  ret void
}

; Function Attrs: mustprogress nounwind uwtable
define hidden noundef i32 @_ZN10AltHashing14halfsiphash_32EmPKti(i64 noundef %0, ptr noundef %1, i32 noundef %2) #1 align 2 {
  %4 = alloca i64, align 8
  %5 = alloca ptr, align 8
  %6 = alloca i32, align 4
  %7 = alloca [4 x i32], align 16
  %8 = alloca i32, align 4
  %9 = alloca i32, align 4
  %10 = alloca i32, align 4
  %11 = alloca i16, align 2
  %12 = alloca i16, align 2
  store i64 %0, ptr %4, align 8
  store ptr %1, ptr %5, align 8
  store i32 %2, ptr %6, align 4
  store i32 0, ptr %9, align 4
  %13 = load i32, ptr %6, align 4
  store i32 %13, ptr %10, align 4
  %14 = getelementptr inbounds [4 x i32], ptr %7, i64 0, i64 0
  %15 = load i64, ptr %4, align 8
  call void @_ZL18halfsiphash_init32Pjm(ptr noundef %14, i64 noundef %15)
  br label %16

16:                                               ; preds = %19, %3
  %17 = load i32, ptr %10, align 4
  %18 = icmp sge i32 %17, 2
  br i1 %18, label %19, label %45

19:                                               ; preds = %16
  %20 = load ptr, ptr %5, align 8
  %21 = load i32, ptr %9, align 4
  %22 = add nsw i32 %21, 1
  store i32 %22, ptr %9, align 4
  %23 = sext i32 %21 to i64
  %24 = getelementptr inbounds i16, ptr %20, i64 %23
  %25 = load i16, ptr %24, align 2
  %26 = zext i16 %25 to i32
  %27 = and i32 %26, 65535
  %28 = trunc i32 %27 to i16
  store i16 %28, ptr %11, align 2
  %29 = load ptr, ptr %5, align 8
  %30 = load i32, ptr %9, align 4
  %31 = add nsw i32 %30, 1
  store i32 %31, ptr %9, align 4
  %32 = sext i32 %30 to i64
  %33 = getelementptr inbounds i16, ptr %29, i64 %32
  %34 = load i16, ptr %33, align 2
  store i16 %34, ptr %12, align 2
  %35 = load i16, ptr %11, align 2
  %36 = zext i16 %35 to i32
  %37 = load i16, ptr %12, align 2
  %38 = zext i16 %37 to i32
  %39 = shl i32 %38, 16
  %40 = or i32 %36, %39
  store i32 %40, ptr %8, align 4
  %41 = load i32, ptr %10, align 4
  %42 = sub nsw i32 %41, 2
  store i32 %42, ptr %10, align 4
  %43 = getelementptr inbounds [4 x i32], ptr %7, i64 0, i64 0
  %44 = load i32, ptr %8, align 4
  call void @_ZL19halfsiphash_adddataPjji(ptr noundef %43, i32 noundef %44, i32 noundef 2)
  br label %16, !llvm.loop !8

45:                                               ; preds = %16
  %46 = load i32, ptr %6, align 4
  %47 = mul i32 %46, 2
  %48 = shl i32 %47, 24
  store i32 %48, ptr %8, align 4
  %49 = load i32, ptr %10, align 4
  %50 = icmp sgt i32 %49, 0
  br i1 %50, label %51, label %60

51:                                               ; preds = %45
  %52 = load ptr, ptr %5, align 8
  %53 = load i32, ptr %9, align 4
  %54 = sext i32 %53 to i64
  %55 = getelementptr inbounds i16, ptr %52, i64 %54
  %56 = load i16, ptr %55, align 2
  %57 = zext i16 %56 to i32
  %58 = load i32, ptr %8, align 4
  %59 = or i32 %58, %57
  store i32 %59, ptr %8, align 4
  br label %60

60:                                               ; preds = %51, %45
  %61 = getelementptr inbounds [4 x i32], ptr %7, i64 0, i64 0
  %62 = load i32, ptr %8, align 4
  call void @_ZL19halfsiphash_adddataPjji(ptr noundef %61, i32 noundef %62, i32 noundef 2)
  %63 = getelementptr inbounds [4 x i32], ptr %7, i64 0, i64 0
  %64 = call noundef i32 @_ZL20halfsiphash_finish32Pji(ptr noundef %63, i32 noundef 4)
  ret i32 %64
}