; Function Attrs: mustprogress nofree norecurse nosync nounwind willreturn memory(argmem: read) uwtable
define hidden noundef i32 @_ZN10AltHashing14halfsiphash_32EmPKti(i64 noundef %0, ptr nocapture noundef readonly %1, i32 noundef %2) local_unnamed_addr #2 align 2 {
  %4 = trunc i64 %0 to i32
  %5 = lshr i64 %0, 32
  %6 = trunc nuw i64 %5 to i32
  %7 = xor i32 %4, 1819895653
  %8 = xor i32 %6, 1952801890
  %9 = icmp sgt i32 %2, 1
  br i1 %9, label %.lr.ph, label %._crit_edge

.lr.ph:                                           ; preds = %3, %_ZL19halfsiphash_adddataPjji.exit
  %indvars.iv = phi i64 [ %indvars.iv.next, %_ZL19halfsiphash_adddataPjji.exit ], [ 0, %3 ]
  %.01747 = phi i32 [ %41, %_ZL19halfsiphash_adddataPjji.exit ], [ %2, %3 ]
  %.sroa.0.046 = phi i32 [ %42, %_ZL19halfsiphash_adddataPjji.exit ], [ %4, %3 ]
  %.sroa.7.045 = phi i32 [ %38, %_ZL19halfsiphash_adddataPjji.exit ], [ %6, %3 ]
  %.sroa.14.044 = phi i32 [ %39, %_ZL19halfsiphash_adddataPjji.exit ], [ %7, %3 ]
  %.sroa.21.043 = phi i32 [ %35, %_ZL19halfsiphash_adddataPjji.exit ], [ %8, %3 ]
  %10 = or disjoint i64 %indvars.iv, 1
  %11 = getelementptr inbounds i16, ptr %1, i64 %indvars.iv
  %12 = load i16, ptr %11, align 2
  %13 = getelementptr inbounds i16, ptr %1, i64 %10
  %14 = load i16, ptr %13, align 2
  %15 = zext i16 %12 to i32
  %16 = zext i16 %14 to i32
  %17 = shl nuw i32 %16, 16
  %18 = or disjoint i32 %17, %15
  %19 = xor i32 %18, %.sroa.21.043
  br label %20

20:                                               ; preds = %20, %.lr.ph
  %21 = phi i32 [ %.sroa.14.044, %.lr.ph ], [ %39, %20 ]
  %22 = phi i32 [ %19, %.lr.ph ], [ %35, %20 ]
  %23 = phi i32 [ %.sroa.0.046, %.lr.ph ], [ %33, %20 ]
  %24 = phi i32 [ %.sroa.7.045, %.lr.ph ], [ %38, %20 ]
  %.028.i.i = phi i32 [ 2, %.lr.ph ], [ %25, %20 ]
  %25 = add nsw i32 %.028.i.i, -1
  %26 = add i32 %24, %23
  %27 = tail call i32 @llvm.fshl.i32(i32 %24, i32 %24, i32 5)
  %28 = xor i32 %26, %27
  %29 = tail call i32 @llvm.fshl.i32(i32 %26, i32 %26, i32 16)
  %30 = add i32 %22, %21
  %31 = tail call i32 @llvm.fshl.i32(i32 %22, i32 %22, i32 8)
  %32 = xor i32 %30, %31
  %33 = add i32 %29, %32
  %34 = tail call i32 @llvm.fshl.i32(i32 %32, i32 %32, i32 7)
  %35 = xor i32 %33, %34
  %36 = add i32 %28, %30
  %37 = tail call i32 @llvm.fshl.i32(i32 %28, i32 %28, i32 13)
  %38 = xor i32 %36, %37
  %39 = tail call i32 @llvm.fshl.i32(i32 %36, i32 %36, i32 16)
  %40 = icmp ugt i32 %.028.i.i, 1
  br i1 %40, label %20, label %_ZL19halfsiphash_adddataPjji.exit, !llvm.loop !6

_ZL19halfsiphash_adddataPjji.exit:                ; preds = %20
  %indvars.iv.next = add nuw nsw i64 %indvars.iv, 2
  %41 = add nsw i32 %.01747, -2
  %42 = xor i32 %33, %18
  %43 = icmp sgt i32 %.01747, 3
  br i1 %43, label %.lr.ph, label %._crit_edge.loopexit, !llvm.loop !9

._crit_edge.loopexit:                             ; preds = %_ZL19halfsiphash_adddataPjji.exit
  %44 = and i64 %indvars.iv.next, 4294967294
  br label %._crit_edge

._crit_edge:                                      ; preds = %._crit_edge.loopexit, %3
  %.sroa.21.0.lcssa = phi i32 [ %8, %3 ], [ %35, %._crit_edge.loopexit ]
  %.sroa.14.0.lcssa = phi i32 [ %7, %3 ], [ %39, %._crit_edge.loopexit ]
  %.sroa.7.0.lcssa = phi i32 [ %6, %3 ], [ %38, %._crit_edge.loopexit ]
  %.sroa.0.0.lcssa = phi i32 [ %4, %3 ], [ %42, %._crit_edge.loopexit ]
  %.017.lcssa = phi i32 [ %2, %3 ], [ %41, %._crit_edge.loopexit ]
  %.016.lcssa = phi i64 [ 0, %3 ], [ %44, %._crit_edge.loopexit ]
  %45 = shl i32 %2, 25
  %46 = icmp eq i32 %.017.lcssa, 1
  br i1 %46, label %47, label %52

47:                                               ; preds = %._crit_edge
  %48 = getelementptr inbounds i16, ptr %1, i64 %.016.lcssa
  %49 = load i16, ptr %48, align 2
  %50 = zext i16 %49 to i32
  %51 = or disjoint i32 %45, %50
  br label %52

52:                                               ; preds = %47, %._crit_edge
  %.0 = phi i32 [ %51, %47 ], [ %45, %._crit_edge ]
  %53 = xor i32 %.0, %.sroa.21.0.lcssa
  br label %54

54:                                               ; preds = %54, %52
  %55 = phi i32 [ %.sroa.14.0.lcssa, %52 ], [ %73, %54 ]
  %56 = phi i32 [ %53, %52 ], [ %69, %54 ]
  %57 = phi i32 [ %.sroa.0.0.lcssa, %52 ], [ %67, %54 ]
  %58 = phi i32 [ %.sroa.7.0.lcssa, %52 ], [ %72, %54 ]
  %.028.i.i21 = phi i32 [ 2, %52 ], [ %59, %54 ]
  %59 = add nsw i32 %.028.i.i21, -1
  %60 = add i32 %58, %57
  %61 = tail call i32 @llvm.fshl.i32(i32 %58, i32 %58, i32 5)
  %62 = xor i32 %60, %61
  %63 = tail call i32 @llvm.fshl.i32(i32 %60, i32 %60, i32 16)
  %64 = add i32 %56, %55
  %65 = tail call i32 @llvm.fshl.i32(i32 %56, i32 %56, i32 8)
  %66 = xor i32 %64, %65
  %67 = add i32 %63, %66
  %68 = tail call i32 @llvm.fshl.i32(i32 %66, i32 %66, i32 7)
  %69 = xor i32 %67, %68
  %70 = add i32 %62, %64
  %71 = tail call i32 @llvm.fshl.i32(i32 %62, i32 %62, i32 13)
  %72 = xor i32 %70, %71
  %73 = tail call i32 @llvm.fshl.i32(i32 %70, i32 %70, i32 16)
  %74 = icmp ugt i32 %.028.i.i21, 1
  br i1 %74, label %54, label %_ZL19halfsiphash_adddataPjji.exit22, !llvm.loop !6

_ZL19halfsiphash_adddataPjji.exit22:              ; preds = %54
  %75 = xor i32 %67, %.0
  %76 = xor i32 %73, 255
  br label %77

77:                                               ; preds = %77, %_ZL19halfsiphash_adddataPjji.exit22
  %78 = phi i32 [ %76, %_ZL19halfsiphash_adddataPjji.exit22 ], [ %96, %77 ]
  %79 = phi i32 [ %69, %_ZL19halfsiphash_adddataPjji.exit22 ], [ %92, %77 ]
  %80 = phi i32 [ %75, %_ZL19halfsiphash_adddataPjji.exit22 ], [ %90, %77 ]
  %81 = phi i32 [ %72, %_ZL19halfsiphash_adddataPjji.exit22 ], [ %95, %77 ]
  %.028.i.i25 = phi i32 [ 4, %_ZL19halfsiphash_adddataPjji.exit22 ], [ %82, %77 ]
  %82 = add nsw i32 %.028.i.i25, -1
  %83 = add i32 %81, %80
  %84 = tail call i32 @llvm.fshl.i32(i32 %81, i32 %81, i32 5)
  %85 = xor i32 %83, %84
  %86 = tail call i32 @llvm.fshl.i32(i32 %83, i32 %83, i32 16)
  %87 = add i32 %79, %78
  %88 = tail call i32 @llvm.fshl.i32(i32 %79, i32 %79, i32 8)
  %89 = xor i32 %87, %88
  %90 = add i32 %86, %89
  %91 = tail call i32 @llvm.fshl.i32(i32 %89, i32 %89, i32 7)
  %92 = xor i32 %90, %91
  %93 = add i32 %85, %87
  %94 = tail call i32 @llvm.fshl.i32(i32 %85, i32 %85, i32 13)
  %95 = xor i32 %93, %94
  %96 = tail call i32 @llvm.fshl.i32(i32 %93, i32 %93, i32 16)
  %97 = icmp ugt i32 %.028.i.i25, 1
  br i1 %97, label %77, label %_ZL20halfsiphash_finish32Pji.exit, !llvm.loop !6

_ZL20halfsiphash_finish32Pji.exit:                ; preds = %77
  %98 = xor i32 %95, %92
  ret i32 %98
}